target datalayout = "e-m:e-p270:32:32-p271:32:32-p272:64:64-i64:64-i128:128-f80:128-n8:16:32:64-S128"
target triple = "x86_64-pc-linux-gnu"

; Function Attrs: mustprogress uwtable
define void @_Z15PrepareToDeletePKw(ptr noundef %0) #0 {
  %2 = alloca ptr, align 8
  %3 = alloca [2048 x i8], align 16
  store ptr %0, ptr %2, align 8
  %4 = load ptr, ptr %2, align 8
  %5 = icmp ne ptr %4, null
  br i1 %5, label %6, label %12

6:                                                ; preds = %1
  %7 = load ptr, ptr %2, align 8
  %8 = getelementptr inbounds [2048 x i8], ptr %3, i64 0, i64 0
  %9 = call noundef zeroext i1 @_Z10WideToCharPKwPcm(ptr noundef %7, ptr noundef %8, i64 noundef 2048)
  %10 = getelementptr inbounds [2048 x i8], ptr %3, i64 0, i64 0
  %11 = call i32 @chmod(ptr noundef %10, i32 noundef 448) #9
  br label %12

12:                                               ; preds = %6, %1
  ret void
}