; Function Attrs: mustprogress uwtable
define void @_Z15PrepareToDeletePKw(ptr noundef %0) local_unnamed_addr #0 {
  %2 = alloca [2048 x i8], align 16
  %.not = icmp eq ptr %0, null
  br i1 %.not, label %6, label %3

3:                                                ; preds = %1
  %4 = call noundef zeroext i1 @_Z10WideToCharPKwPcm(ptr noundef nonnull %0, ptr noundef nonnull %2, i64 noundef 2048)
  %5 = call i32 @chmod(ptr noundef nonnull %2, i32 noundef 448) #14
  br label %6

6:                                                ; preds = %3, %1
  ret void
}